target datalayout = "e-m:e-p270:32:32-p271:32:32-p272:64:64-i64:64-i128:128-f80:128-n8:16:32:64-S128"
target triple = "x86_64-pc-linux-gnu"

%struct.rb_dirent = type { i64, ptr, i8 }

; Function Attrs: nounwind sspstrong uwtable
define internal i32 @glob_sort_cmp(ptr noundef %0, ptr noundef %1, ptr noundef %2) #0 {
  %4 = alloca ptr, align 8
  %5 = alloca ptr, align 8
  %6 = alloca ptr, align 8
  %7 = alloca ptr, align 8
  %8 = alloca ptr, align 8
  store ptr %0, ptr %4, align 8, !tbaa !14
  store ptr %1, ptr %5, align 8, !tbaa !14
  store ptr %2, ptr %6, align 8, !tbaa !14
  call void @llvm.lifetime.start.p0(i64 8, ptr %7) #26
  %9 = load ptr, ptr %4, align 8, !tbaa !14
  %10 = load ptr, ptr %9, align 8, !tbaa !14
  store ptr %10, ptr %7, align 8, !tbaa !107
  call void @llvm.lifetime.start.p0(i64 8, ptr %8) #26
  %11 = load ptr, ptr %5, align 8, !tbaa !14
  %12 = load ptr, ptr %11, align 8, !tbaa !14
  store ptr %12, ptr %8, align 8, !tbaa !107
  %13 = load ptr, ptr %7, align 8, !tbaa !107
  %14 = getelementptr inbounds nuw %struct.rb_dirent, ptr %13, i32 0, i32 1
  %15 = load ptr, ptr %14, align 8, !tbaa !109
  %16 = load ptr, ptr %8, align 8, !tbaa !107
  %17 = getelementptr inbounds nuw %struct.rb_dirent, ptr %16, i32 0, i32 1
  %18 = load ptr, ptr %17, align 8, !tbaa !109
  %19 = call i32 @strcmp(ptr noundef %15, ptr noundef %18) #27
  call void @llvm.lifetime.end.p0(i64 8, ptr %8) #26
  call void @llvm.lifetime.end.p0(i64 8, ptr %7) #26
  ret i32 %19
}