; Function Attrs: mustprogress nofree nounwind sspstrong willreturn memory(read, inaccessiblemem: none) uwtable
define internal i32 @glob_sort_cmp(ptr noundef readonly captures(none) %0, ptr noundef readonly captures(none) %1, ptr readnone captures(none) %2) #12 {
  %4 = load ptr, ptr %0, align 8, !tbaa !181
  %5 = load ptr, ptr %1, align 8, !tbaa !181
  %6 = getelementptr inbounds nuw i8, ptr %4, i64 8
  %7 = load ptr, ptr %6, align 8, !tbaa !155
  %8 = getelementptr inbounds nuw i8, ptr %5, i64 8
  %9 = load ptr, ptr %8, align 8, !tbaa !155
  %10 = tail call i32 @strcmp(ptr noundef nonnull dereferenceable(1) %7, ptr noundef nonnull dereferenceable(1) %9) #23
  ret i32 %10
}